; Function Attrs: mustprogress uwtable
define void @_ZN6casadi8Sparsity11deserializeERKNSt7__cxx1112basic_stringIcSt11char_traitsIcESaIcEEE(ptr dead_on_unwind noalias writable sret(%"class.casadi::Sparsity") align 8 %0, ptr noundef nonnull align 8 dereferenceable(32) %1) local_unnamed_addr #3 align 2 personality ptr @__gxx_personality_v0 {
  %3 = alloca %"class.casadi::DeserializingStream", align 8
  %4 = alloca %"class.std::__cxx11::basic_stringstream", align 8
  call void @_ZNSt7__cxx1118basic_stringstreamIcSt11char_traitsIcESaIcEEC1Ev(ptr noundef nonnull align 8 dereferenceable(128) %4)
  %5 = getelementptr inbounds i8, ptr %4, i64 16
  %6 = invoke noundef nonnull align 8 dereferenceable(8) ptr @_ZStlsIcSt11char_traitsIcESaIcEERSt13basic_ostreamIT_T0_ES7_RKNSt7__cxx1112basic_stringIS4_S5_T1_EE(ptr noundef nonnull align 8 dereferenceable(8) %5, ptr noundef nonnull align 8 dereferenceable(32) %1)
          to label %7 unwind label %18

7:                                                ; preds = %2
  call void @llvm.lifetime.start.p0(i64 48, ptr nonnull %3)
  invoke void @_ZN6casadi19DeserializingStreamC1ERSi(ptr noundef nonnull align 8 dereferenceable(41) %3, ptr noundef nonnull align 8 dereferenceable(16) %4)
          to label %.noexc unwind label %18

.noexc:                                           ; preds = %7
  invoke void @_ZN6casadi8Sparsity11deserializeERNS_19DeserializingStreamE(ptr dead_on_unwind writable sret(%"class.casadi::Sparsity") align 8 %0, ptr noundef nonnull align 8 dereferenceable(41) %3)
          to label %8 unwind label %15

8:                                                ; preds = %.noexc
  %9 = load ptr, ptr %3, align 8, !noalias !387
  %10 = getelementptr inbounds i8, ptr %3, i64 8
  %11 = load ptr, ptr %10, align 8, !noalias !387
  %.not4.i.i.i.i.i.i = icmp eq ptr %9, %11
  br i1 %.not4.i.i.i.i.i.i, label %_ZSt8_DestroyIPN6casadi18UniversalNodeOwnerES1_EvT_S3_RSaIT0_E.exit.i.i.i, label %.lr.ph.i.i.i.i.i.i

.lr.ph.i.i.i.i.i.i:                               ; preds = %8, %.lr.ph.i.i.i.i.i.i
  %.05.i.i.i.i.i.i = phi ptr [ %12, %.lr.ph.i.i.i.i.i.i ], [ %9, %8 ]
  call void @_ZN6casadi18UniversalNodeOwnerD1Ev(ptr noundef nonnull align 8 dereferenceable(9) %.05.i.i.i.i.i.i) #24
  %12 = getelementptr inbounds i8, ptr %.05.i.i.i.i.i.i, i64 16
  %.not.i.i.i.i.i.i = icmp eq ptr %12, %11
  br i1 %.not.i.i.i.i.i.i, label %_ZSt8_DestroyIPN6casadi18UniversalNodeOwnerES1_EvT_S3_RSaIT0_E.exitthread-pre-split.i.i.i, label %.lr.ph.i.i.i.i.i.i, !llvm.loop !383

_ZSt8_DestroyIPN6casadi18UniversalNodeOwnerES1_EvT_S3_RSaIT0_E.exitthread-pre-split.i.i.i: ; preds = %.lr.ph.i.i.i.i.i.i
  %.pr.i.i.i = load ptr, ptr %3, align 8, !noalias !387
  br label %_ZSt8_DestroyIPN6casadi18UniversalNodeOwnerES1_EvT_S3_RSaIT0_E.exit.i.i.i

_ZSt8_DestroyIPN6casadi18UniversalNodeOwnerES1_EvT_S3_RSaIT0_E.exit.i.i.i: ; preds = %_ZSt8_DestroyIPN6casadi18UniversalNodeOwnerES1_EvT_S3_RSaIT0_E.exitthread-pre-split.i.i.i, %8
  %13 = phi ptr [ %.pr.i.i.i, %_ZSt8_DestroyIPN6casadi18UniversalNodeOwnerES1_EvT_S3_RSaIT0_E.exitthread-pre-split.i.i.i ], [ %9, %8 ]
  %.not.i.i.i.i.i = icmp eq ptr %13, null
  br i1 %.not.i.i.i.i.i, label %17, label %14

14:                                               ; preds = %_ZSt8_DestroyIPN6casadi18UniversalNodeOwnerES1_EvT_S3_RSaIT0_E.exit.i.i.i
  call void @_ZdlPv(ptr noundef nonnull %13) #26
  br label %17

15:                                               ; preds = %.noexc
  %16 = landingpad { ptr, i32 }
          cleanup
  call void @_ZN6casadi19DeserializingStreamD2Ev(ptr noundef nonnull align 8 dereferenceable(41) %3) #24
  br label %.body

17:                                               ; preds = %14, %_ZSt8_DestroyIPN6casadi18UniversalNodeOwnerES1_EvT_S3_RSaIT0_E.exit.i.i.i
  call void @llvm.lifetime.end.p0(i64 48, ptr nonnull %3)
  call void @_ZNSt7__cxx1118basic_stringstreamIcSt11char_traitsIcESaIcEED1Ev(ptr noundef nonnull align 8 dereferenceable(128) %4) #24
  ret void

18:                                               ; preds = %7, %2
  %19 = landingpad { ptr, i32 }
          cleanup
  br label %.body

.body:                                            ; preds = %15, %18
  %eh.lpad-body = phi { ptr, i32 } [ %19, %18 ], [ %16, %15 ]
  call void @_ZNSt7__cxx1118basic_stringstreamIcSt11char_traitsIcESaIcEED1Ev(ptr noundef nonnull align 8 dereferenceable(128) %4) #24
  resume { ptr, i32 } %eh.lpad-body
}